; ModuleID = '9/1563.c'
source_filename = "9/1563.c"
target datalayout = "e-m:e-p270:32:32-p271:32:32-p272:64:64-i64:64-f80:128-n8:16:32:64-S128"
target triple = "x86_64-pc-linux-gnu"

%struct.pa = type { [10 x i8], i32 }

@.str = private unnamed_addr constant [3 x i8] c"%d\00", align 1
@.str.1 = private unnamed_addr constant [5 x i8] c"%s%d\00", align 1
@p = common dso_local global [105 x %struct.pa] zeroinitializer, align 16
@a = common dso_local global [105 x %struct.pa] zeroinitializer, align 16
@t = common dso_local global %struct.pa zeroinitializer, align 4
@.str.2 = private unnamed_addr constant [4 x i8] c"%s\0A\00", align 1

; Function Attrs: noinline nounwind uwtable
define dso_local i32 @main() #0 {
  %1 = alloca i32, align 4
  %2 = alloca i32, align 4
  %3 = alloca i32, align 4
  %4 = alloca i32, align 4
  %5 = alloca i32, align 4
  %6 = alloca i32, align 4
  store i32 0, i32* %1, align 4
  %7 = call i32 (i8*, ...) @__isoc99_scanf(i8* getelementptr inbounds ([3 x i8], [3 x i8]* @.str, i64 0, i64 0), i32* %4)
  store i32 0, i32* %3, align 4
  store i32 0, i32* %2, align 4
  br label %8

8:                                                ; preds = %45, %0
  %9 = load i32, i32* %2, align 4
  %10 = load i32, i32* %3, align 4
  %11 = add nsw i32 %9, %10
  %12 = load i32, i32* %4, align 4
  %13 = icmp slt i32 %11, %12
  br i1 %13, label %14, label %46

14:                                               ; preds = %8
  %15 = load i32, i32* %2, align 4
  %16 = sext i32 %15 to i64
  %17 = getelementptr inbounds [105 x %struct.pa], [105 x %struct.pa]* @p, i64 0, i64 %16
  %18 = getelementptr inbounds %struct.pa, %struct.pa* %17, i32 0, i32 0
  %19 = getelementptr inbounds [10 x i8], [10 x i8]* %18, i64 0, i64 0
  %20 = load i32, i32* %2, align 4
  %21 = sext i32 %20 to i64
  %22 = getelementptr inbounds [105 x %struct.pa], [105 x %struct.pa]* @p, i64 0, i64 %21
  %23 = getelementptr inbounds %struct.pa, %struct.pa* %22, i32 0, i32 1
  %24 = call i32 (i8*, ...) @__isoc99_scanf(i8* getelementptr inbounds ([5 x i8], [5 x i8]* @.str.1, i64 0, i64 0), i8* %19, i32* %23)
  %25 = load i32, i32* %2, align 4
  %26 = sext i32 %25 to i64
  %27 = getelementptr inbounds [105 x %struct.pa], [105 x %struct.pa]* @p, i64 0, i64 %26
  %28 = getelementptr inbounds %struct.pa, %struct.pa* %27, i32 0, i32 1
  %29 = load i32, i32* %28, align 4
  %30 = icmp sge i32 %29, 60
  br i1 %30, label %31, label %42

31:                                               ; preds = %14
  %32 = load i32, i32* %3, align 4
  %33 = sext i32 %32 to i64
  %34 = getelementptr inbounds [105 x %struct.pa], [105 x %struct.pa]* @a, i64 0, i64 %33
  %35 = load i32, i32* %2, align 4
  %36 = sext i32 %35 to i64
  %37 = getelementptr inbounds [105 x %struct.pa], [105 x %struct.pa]* @p, i64 0, i64 %36
  %38 = bitcast %struct.pa* %34 to i8*
  %39 = bitcast %struct.pa* %37 to i8*
  call void @llvm.memcpy.p0i8.p0i8.i64(i8* align 16 %38, i8* align 16 %39, i64 16, i1 false)
  %40 = load i32, i32* %3, align 4
  %41 = add nsw i32 %40, 1
  store i32 %41, i32* %3, align 4
  br label %45

42:                                               ; preds = %14
  %43 = load i32, i32* %2, align 4
  %44 = add nsw i32 %43, 1
  store i32 %44, i32* %2, align 4
  br label %45

45:                                               ; preds = %42, %31
  br label %8

46:                                               ; preds = %8
  store i32 0, i32* %5, align 4
  br label %47

47:                                               ; preds = %95, %46
  %48 = load i32, i32* %5, align 4
  %49 = load i32, i32* %3, align 4
  %50 = sub nsw i32 %49, 1
  %51 = icmp slt i32 %48, %50
  br i1 %51, label %52, label %98

52:                                               ; preds = %47
  store i32 0, i32* %6, align 4
  br label %53

53:                                               ; preds = %91, %52
  %54 = load i32, i32* %6, align 4
  %55 = load i32, i32* %3, align 4
  %56 = sub nsw i32 %55, 1
  %57 = icmp slt i32 %54, %56
  br i1 %57, label %58, label %94

58:                                               ; preds = %53
  %59 = load i32, i32* %6, align 4
  %60 = sext i32 %59 to i64
  %61 = getelementptr inbounds [105 x %struct.pa], [105 x %struct.pa]* @a, i64 0, i64 %60
  %62 = getelementptr inbounds %struct.pa, %struct.pa* %61, i32 0, i32 1
  %63 = load i32, i32* %62, align 4
  %64 = load i32, i32* %6, align 4
  %65 = add nsw i32 %64, 1
  %66 = sext i32 %65 to i64
  %67 = getelementptr inbounds [105 x %struct.pa], [105 x %struct.pa]* @a, i64 0, i64 %66
  %68 = getelementptr inbounds %struct.pa, %struct.pa* %67, i32 0, i32 1
  %69 = load i32, i32* %68, align 4
  %70 = icmp slt i32 %63, %69
  br i1 %70, label %71, label %90

71:                                               ; preds = %58
  %72 = load i32, i32* %6, align 4
  %73 = sext i32 %72 to i64
  %74 = getelementptr inbounds [105 x %struct.pa], [105 x %struct.pa]* @a, i64 0, i64 %73
  %75 = bitcast %struct.pa* %74 to i8*
  call void @llvm.memcpy.p0i8.p0i8.i64(i8* align 4 getelementptr inbounds (%struct.pa, %struct.pa* @t, i32 0, i32 0, i32 0), i8* align 16 %75, i64 16, i1 false)
  %76 = load i32, i32* %6, align 4
  %77 = sext i32 %76 to i64
  %78 = getelementptr inbounds [105 x %struct.pa], [105 x %struct.pa]* @a, i64 0, i64 %77
  %79 = load i32, i32* %6, align 4
  %80 = add nsw i32 %79, 1
  %81 = sext i32 %80 to i64
  %82 = getelementptr inbounds [105 x %struct.pa], [105 x %struct.pa]* @a, i64 0, i64 %81
  %83 = bitcast %struct.pa* %78 to i8*
  %84 = bitcast %struct.pa* %82 to i8*
  call void @llvm.memcpy.p0i8.p0i8.i64(i8* align 16 %83, i8* align 16 %84, i64 16, i1 false)
  %85 = load i32, i32* %6, align 4
  %86 = add nsw i32 %85, 1
  %87 = sext i32 %86 to i64
  %88 = getelementptr inbounds [105 x %struct.pa], [105 x %struct.pa]* @a, i64 0, i64 %87
  %89 = bitcast %struct.pa* %88 to i8*
  call void @llvm.memcpy.p0i8.p0i8.i64(i8* align 16 %89, i8* align 4 getelementptr inbounds (%struct.pa, %struct.pa* @t, i32 0, i32 0, i32 0), i64 16, i1 false)
  br label %90

90:                                               ; preds = %71, %58
  br label %91

91:                                               ; preds = %90
  %92 = load i32, i32* %6, align 4
  %93 = add nsw i32 %92, 1
  store i32 %93, i32* %6, align 4
  br label %53

94:                                               ; preds = %53
  br label %95

95:                                               ; preds = %94
  %96 = load i32, i32* %5, align 4
  %97 = add nsw i32 %96, 1
  store i32 %97, i32* %5, align 4
  br label %47

98:                                               ; preds = %47
  %99 = load i32, i32* %3, align 4
  %100 = icmp sge i32 %99, 0
  br i1 %100, label %101, label %119

101:                                              ; preds = %98
  %102 = load i32, i32* %3, align 4
  %103 = add nsw i32 %102, -1
  store i32 %103, i32* %3, align 4
  store i32 0, i32* %5, align 4
  br label %104

104:                                              ; preds = %115, %101
  %105 = load i32, i32* %5, align 4
  %106 = load i32, i32* %3, align 4
  %107 = icmp sle i32 %105, %106
  br i1 %107, label %108, label %118

108:                                              ; preds = %104
  %109 = load i32, i32* %5, align 4
  %110 = sext i32 %109 to i64
  %111 = getelementptr inbounds [105 x %struct.pa], [105 x %struct.pa]* @a, i64 0, i64 %110
  %112 = getelementptr inbounds %struct.pa, %struct.pa* %111, i32 0, i32 0
  %113 = getelementptr inbounds [10 x i8], [10 x i8]* %112, i64 0, i64 0
  %114 = call i32 (i8*, ...) @printf(i8* getelementptr inbounds ([4 x i8], [4 x i8]* @.str.2, i64 0, i64 0), i8* %113)
  br label %115

115:                                              ; preds = %108
  %116 = load i32, i32* %5, align 4
  %117 = add nsw i32 %116, 1
  store i32 %117, i32* %5, align 4
  br label %104

118:                                              ; preds = %104
  br label %119

119:                                              ; preds = %118, %98
  %120 = load i32, i32* %2, align 4
  %121 = icmp sge i32 %120, 0
  br i1 %121, label %122, label %140

122:                                              ; preds = %119
  %123 = load i32, i32* %2, align 4
  %124 = add nsw i32 %123, -1
  store i32 %124, i32* %2, align 4
  store i32 0, i32* %6, align 4
  br label %125

125:                                              ; preds = %136, %122
  %126 = load i32, i32* %6, align 4
  %127 = load i32, i32* %2, align 4
  %128 = icmp sle i32 %126, %127
  br i1 %128, label %129, label %139

129:                                              ; preds = %125
  %130 = load i32, i32* %6, align 4
  %131 = sext i32 %130 to i64
  %132 = getelementptr inbounds [105 x %struct.pa], [105 x %struct.pa]* @p, i64 0, i64 %131
  %133 = getelementptr inbounds %struct.pa, %struct.pa* %132, i32 0, i32 0
  %134 = getelementptr inbounds [10 x i8], [10 x i8]* %133, i64 0, i64 0
  %135 = call i32 (i8*, ...) @printf(i8* getelementptr inbounds ([4 x i8], [4 x i8]* @.str.2, i64 0, i64 0), i8* %134)
  br label %136

136:                                              ; preds = %129
  %137 = load i32, i32* %6, align 4
  %138 = add nsw i32 %137, 1
  store i32 %138, i32* %6, align 4
  br label %125

139:                                              ; preds = %125
  br label %140

140:                                              ; preds = %139, %119
  ret i32 0
}

declare dso_local i32 @__isoc99_scanf(i8*, ...) #1

; Function Attrs: argmemonly nounwind willreturn
declare void @llvm.memcpy.p0i8.p0i8.i64(i8* noalias nocapture writeonly, i8* noalias nocapture readonly, i64, i1 immarg) #2

declare dso_local i32 @printf(i8*, ...) #1


!llvm.module.flags = !{!0}
!llvm.ident = !{!1}

!0 = !{i32 1, !"wchar_size", i32 4}
!1 = !{!"clang version 10.0.0-4ubuntu1 "}
